target datalayout = "e-m:e-p270:32:32-p271:32:32-p272:64:64-i64:64-i128:128-f80:128-n8:16:32:64-S128"
target triple = "x86_64-pc-linux-gnu"

%struct.lhash_st = type { i64, ptr, i64, i32, ptr, ptr }
%struct.lhash_item_st = type { ptr, ptr, i32 }

; Function Attrs: nounwind uwtable
define hidden void @lh_free(ptr noundef %0) #0 {
  %2 = alloca ptr, align 8
  %3 = alloca i64, align 8
  %4 = alloca ptr, align 8
  %5 = alloca ptr, align 8
  %6 = alloca i32, align 4
  store ptr %0, ptr %2, align 8, !tbaa !10
  call void @llvm.lifetime.start.p0(i64 8, ptr %3) #6
  call void @llvm.lifetime.start.p0(i64 8, ptr %4) #6
  call void @llvm.lifetime.start.p0(i64 8, ptr %5) #6
  %7 = load ptr, ptr %2, align 8, !tbaa !10
  %8 = icmp eq ptr %7, null
  br i1 %8, label %9, label %10

9:                                                ; preds = %1
  store i32 1, ptr %6, align 4
  br label %43

10:                                               ; preds = %1
  store i64 0, ptr %3, align 8, !tbaa !22
  br label %11

11:                                               ; preds = %35, %10
  %12 = load i64, ptr %3, align 8, !tbaa !22
  %13 = load ptr, ptr %2, align 8, !tbaa !10
  %14 = getelementptr inbounds nuw %struct.lhash_st, ptr %13, i32 0, i32 2
  %15 = load i64, ptr %14, align 8, !tbaa !12
  %16 = icmp ult i64 %12, %15
  br i1 %16, label %17, label %38

17:                                               ; preds = %11
  %18 = load ptr, ptr %2, align 8, !tbaa !10
  %19 = getelementptr inbounds nuw %struct.lhash_st, ptr %18, i32 0, i32 1
  %20 = load ptr, ptr %19, align 8, !tbaa !17
  %21 = load i64, ptr %3, align 8, !tbaa !22
  %22 = getelementptr inbounds nuw ptr, ptr %20, i64 %21
  %23 = load ptr, ptr %22, align 8, !tbaa !27
  store ptr %23, ptr %4, align 8, !tbaa !27
  br label %24

24:                                               ; preds = %32, %17
  %25 = load ptr, ptr %4, align 8, !tbaa !27
  %26 = icmp ne ptr %25, null
  br i1 %26, label %27, label %34

27:                                               ; preds = %24
  %28 = load ptr, ptr %4, align 8, !tbaa !27
  %29 = getelementptr inbounds nuw %struct.lhash_item_st, ptr %28, i32 0, i32 1
  %30 = load ptr, ptr %29, align 8, !tbaa !29
  store ptr %30, ptr %5, align 8, !tbaa !27
  %31 = load ptr, ptr %4, align 8, !tbaa !27
  call void @free(ptr noundef %31) #6
  br label %32

32:                                               ; preds = %27
  %33 = load ptr, ptr %5, align 8, !tbaa !27
  store ptr %33, ptr %4, align 8, !tbaa !27
  br label %24, !llvm.loop !31

34:                                               ; preds = %24
  br label %35

35:                                               ; preds = %34
  %36 = load i64, ptr %3, align 8, !tbaa !22
  %37 = add i64 %36, 1
  store i64 %37, ptr %3, align 8, !tbaa !22
  br label %11, !llvm.loop !32

38:                                               ; preds = %11
  %39 = load ptr, ptr %2, align 8, !tbaa !10
  %40 = getelementptr inbounds nuw %struct.lhash_st, ptr %39, i32 0, i32 1
  %41 = load ptr, ptr %40, align 8, !tbaa !17
  call void @free(ptr noundef %41) #6
  %42 = load ptr, ptr %2, align 8, !tbaa !10
  call void @free(ptr noundef %42) #6
  store i32 0, ptr %6, align 4
  br label %43

43:                                               ; preds = %38, %9
  call void @llvm.lifetime.end.p0(i64 8, ptr %5) #6
  call void @llvm.lifetime.end.p0(i64 8, ptr %4) #6
  call void @llvm.lifetime.end.p0(i64 8, ptr %3) #6
  %44 = load i32, ptr %6, align 4
  switch i32 %44, label %46 [
    i32 0, label %45
    i32 1, label %45
  ]

45:                                               ; preds = %43, %43
  ret void

46:                                               ; preds = %43
  unreachable
}