; Function Attrs: nounwind uwtable
define hidden void @lh_free(ptr noundef captures(address_is_null) %0) local_unnamed_addr #5 {
  %2 = icmp eq ptr %0, null
  br i1 %2, label %18, label %.preheader

.preheader:                                       ; preds = %1
  %3 = getelementptr inbounds nuw i8, ptr %0, i64 16
  %4 = load i64, ptr %3, align 8, !tbaa !6
  %.not18 = icmp eq i64 %4, 0
  br i1 %.not18, label %._crit_edge17, label %.lr.ph16

.lr.ph16:                                         ; preds = %.preheader
  %5 = getelementptr inbounds nuw i8, ptr %0, i64 8
  br label %6

6:                                                ; preds = %.lr.ph16, %._crit_edge
  %7 = phi i64 [ %4, %.lr.ph16 ], [ %13, %._crit_edge ]
  %.015 = phi i64 [ 0, %.lr.ph16 ], [ %14, %._crit_edge ]
  %8 = load ptr, ptr %5, align 8, !tbaa !14
  %9 = getelementptr inbounds nuw ptr, ptr %8, i64 %.015
  %10 = load ptr, ptr %9, align 8, !tbaa !20
  %.not13 = icmp eq ptr %10, null
  br i1 %.not13, label %._crit_edge, label %.lr.ph

.lr.ph:                                           ; preds = %6, %.lr.ph
  %.01114 = phi ptr [ %12, %.lr.ph ], [ %10, %6 ]
  %11 = getelementptr inbounds nuw i8, ptr %.01114, i64 8
  %12 = load ptr, ptr %11, align 8, !tbaa !22
  tail call void @free(ptr noundef nonnull %.01114) #9
  %.not = icmp eq ptr %12, null
  br i1 %.not, label %._crit_edge.loopexit, label %.lr.ph, !llvm.loop !24

._crit_edge.loopexit:                             ; preds = %.lr.ph
  %.pre = load i64, ptr %3, align 8, !tbaa !6
  br label %._crit_edge

._crit_edge:                                      ; preds = %._crit_edge.loopexit, %6
  %13 = phi i64 [ %.pre, %._crit_edge.loopexit ], [ %7, %6 ]
  %14 = add nuw i64 %.015, 1
  %15 = icmp ult i64 %14, %13
  br i1 %15, label %6, label %._crit_edge17, !llvm.loop !25

._crit_edge17:                                    ; preds = %._crit_edge, %.preheader
  %16 = getelementptr inbounds nuw i8, ptr %0, i64 8
  %17 = load ptr, ptr %16, align 8, !tbaa !14
  tail call void @free(ptr noundef %17) #9
  tail call void @free(ptr noundef nonnull %0) #9
  br label %18

18:                                               ; preds = %1, %._crit_edge17
  ret void
}